target datalayout = "e-m:e-p270:32:32-p271:32:32-p272:64:64-i64:64-i128:128-f80:128-n8:16:32:64-S128"
target triple = "x86_64-pc-linux-gnu"

%struct._PyPathConfig = type { ptr, ptr, ptr, ptr, ptr, ptr, ptr, ptr, i32 }
%struct.PyMemAllocatorEx = type { ptr, ptr, ptr, ptr, ptr }

@_Py_path_config = hidden global { ptr, ptr, ptr, ptr, ptr, ptr, ptr, ptr, i32, [4 x i8] } zeroinitializer, align 8
@.str.1 = private unnamed_addr constant [1 x i32] zeroinitializer, align 4
@__func__.Py_SetPath = private unnamed_addr constant [11 x i8] c"Py_SetPath\00", align 1

; Function Attrs: nounwind uwtable
define dso_local void @Py_SetPath(ptr noundef %0) #0 {
  %2 = alloca ptr, align 8
  %3 = alloca %struct.PyMemAllocatorEx, align 8
  store ptr %0, ptr %2, align 8, !tbaa !41
  %4 = load ptr, ptr %2, align 8, !tbaa !41
  %5 = icmp eq ptr %4, null
  br i1 %5, label %6, label %7

6:                                                ; preds = %1
  call void @_PyPathConfig_ClearGlobal()
  br label %39

7:                                                ; preds = %1
  call void @llvm.lifetime.start.p0(i64 40, ptr %3) #9
  %8 = call i32 @_PyMem_SetDefaultAllocator(i32 noundef 0, ptr noundef %3)
  %9 = load ptr, ptr getelementptr inbounds nuw (%struct._PyPathConfig, ptr @_Py_path_config, i32 0, i32 1), align 8, !tbaa !12
  call void @PyMem_RawFree(ptr noundef %9)
  %10 = load ptr, ptr getelementptr inbounds nuw (%struct._PyPathConfig, ptr @_Py_path_config, i32 0, i32 2), align 8, !tbaa !13
  call void @PyMem_RawFree(ptr noundef %10)
  %11 = load ptr, ptr getelementptr inbounds nuw (%struct._PyPathConfig, ptr @_Py_path_config, i32 0, i32 3), align 8, !tbaa !14
  call void @PyMem_RawFree(ptr noundef %11)
  %12 = load ptr, ptr getelementptr inbounds nuw (%struct._PyPathConfig, ptr @_Py_path_config, i32 0, i32 4), align 8, !tbaa !4
  call void @PyMem_RawFree(ptr noundef %12)
  %13 = load ptr, ptr getelementptr inbounds nuw (%struct._PyPathConfig, ptr @_Py_path_config, i32 0, i32 5), align 8, !tbaa !15
  call void @PyMem_RawFree(ptr noundef %13)
  %14 = call ptr @_PyMem_RawWcsdup(ptr noundef @.str.1)
  store ptr %14, ptr getelementptr inbounds nuw (%struct._PyPathConfig, ptr @_Py_path_config, i32 0, i32 1), align 8, !tbaa !12
  %15 = call ptr @_PyMem_RawWcsdup(ptr noundef @.str.1)
  store ptr %15, ptr getelementptr inbounds nuw (%struct._PyPathConfig, ptr @_Py_path_config, i32 0, i32 2), align 8, !tbaa !13
  %16 = load ptr, ptr getelementptr inbounds nuw (%struct._PyPathConfig, ptr @_Py_path_config, i32 0, i32 7), align 8, !tbaa !17
  %17 = icmp ne ptr %16, null
  br i1 %17, label %18, label %21

18:                                               ; preds = %7
  %19 = load ptr, ptr getelementptr inbounds nuw (%struct._PyPathConfig, ptr @_Py_path_config, i32 0, i32 7), align 8, !tbaa !17
  %20 = call ptr @_PyMem_RawWcsdup(ptr noundef %19)
  store ptr %20, ptr getelementptr inbounds nuw (%struct._PyPathConfig, ptr @_Py_path_config, i32 0, i32 3), align 8, !tbaa !14
  br label %23

21:                                               ; preds = %7
  %22 = call ptr @_PyMem_RawWcsdup(ptr noundef @.str.1)
  store ptr %22, ptr getelementptr inbounds nuw (%struct._PyPathConfig, ptr @_Py_path_config, i32 0, i32 3), align 8, !tbaa !14
  br label %23

23:                                               ; preds = %21, %18
  %24 = load ptr, ptr %2, align 8, !tbaa !41
  %25 = call ptr @_PyMem_RawWcsdup(ptr noundef %24)
  store ptr %25, ptr getelementptr inbounds nuw (%struct._PyPathConfig, ptr @_Py_path_config, i32 0, i32 4), align 8, !tbaa !4
  store ptr null, ptr getelementptr inbounds nuw (%struct._PyPathConfig, ptr @_Py_path_config, i32 0, i32 5), align 8, !tbaa !15
  call void @PyMem_SetAllocator(i32 noundef 0, ptr noundef %3)
  %26 = load ptr, ptr getelementptr inbounds nuw (%struct._PyPathConfig, ptr @_Py_path_config, i32 0, i32 1), align 8, !tbaa !12
  %27 = icmp eq ptr %26, null
  br i1 %27, label %37, label %28

28:                                               ; preds = %23
  %29 = load ptr, ptr getelementptr inbounds nuw (%struct._PyPathConfig, ptr @_Py_path_config, i32 0, i32 2), align 8, !tbaa !13
  %30 = icmp eq ptr %29, null
  br i1 %30, label %37, label %31

31:                                               ; preds = %28
  %32 = load ptr, ptr getelementptr inbounds nuw (%struct._PyPathConfig, ptr @_Py_path_config, i32 0, i32 3), align 8, !tbaa !14
  %33 = icmp eq ptr %32, null
  br i1 %33, label %37, label %34

34:                                               ; preds = %31
  %35 = load ptr, ptr getelementptr inbounds nuw (%struct._PyPathConfig, ptr @_Py_path_config, i32 0, i32 4), align 8, !tbaa !4
  %36 = icmp eq ptr %35, null
  br i1 %36, label %37, label %38

37:                                               ; preds = %34, %31, %28, %23
  call void @path_out_of_memory(ptr noundef @__func__.Py_SetPath) #11
  unreachable

38:                                               ; preds = %34
  call void @llvm.lifetime.end.p0(i64 40, ptr %3) #9
  br label %39

39:                                               ; preds = %38, %6
  ret void
}