; Function Attrs: nounwind uwtable
define dso_local void @Py_SetPath(ptr noundef %0) local_unnamed_addr #1 {
  %2 = alloca %struct.PyMemAllocatorEx, align 8
  %3 = icmp eq ptr %0, null
  br i1 %3, label %4, label %5

4:                                                ; preds = %1
  tail call void @_PyPathConfig_ClearGlobal()
  br label %27

5:                                                ; preds = %1
  call void @llvm.lifetime.start.p0(i64 40, ptr nonnull %2) #12
  %6 = call i32 @_PyMem_SetDefaultAllocator(i32 noundef 0, ptr noundef nonnull %2) #12
  %7 = load ptr, ptr getelementptr inbounds nuw (i8, ptr @_Py_path_config, i64 8), align 8, !tbaa !12
  call void @PyMem_RawFree(ptr noundef %7) #12
  %8 = load ptr, ptr getelementptr inbounds nuw (i8, ptr @_Py_path_config, i64 16), align 8, !tbaa !13
  call void @PyMem_RawFree(ptr noundef %8) #12
  %9 = load ptr, ptr getelementptr inbounds nuw (i8, ptr @_Py_path_config, i64 24), align 8, !tbaa !14
  call void @PyMem_RawFree(ptr noundef %9) #12
  %10 = load ptr, ptr getelementptr inbounds nuw (i8, ptr @_Py_path_config, i64 32), align 8, !tbaa !4
  call void @PyMem_RawFree(ptr noundef %10) #12
  %11 = load ptr, ptr getelementptr inbounds nuw (i8, ptr @_Py_path_config, i64 40), align 8, !tbaa !15
  call void @PyMem_RawFree(ptr noundef %11) #12
  %12 = call ptr @_PyMem_RawWcsdup(ptr noundef nonnull @.str.1) #12
  store ptr %12, ptr getelementptr inbounds nuw (i8, ptr @_Py_path_config, i64 8), align 8, !tbaa !12
  %13 = call ptr @_PyMem_RawWcsdup(ptr noundef nonnull @.str.1) #12
  store ptr %13, ptr getelementptr inbounds nuw (i8, ptr @_Py_path_config, i64 16), align 8, !tbaa !13
  %14 = load ptr, ptr getelementptr inbounds nuw (i8, ptr @_Py_path_config, i64 56), align 8, !tbaa !17
  %.not = icmp eq ptr %14, null
  %.str.1. = select i1 %.not, ptr @.str.1, ptr %14
  %15 = call ptr @_PyMem_RawWcsdup(ptr noundef nonnull %.str.1.) #12
  store ptr %15, ptr getelementptr inbounds nuw (i8, ptr @_Py_path_config, i64 24), align 8, !tbaa !14
  %16 = call ptr @_PyMem_RawWcsdup(ptr noundef nonnull %0) #12
  store ptr %16, ptr getelementptr inbounds nuw (i8, ptr @_Py_path_config, i64 32), align 8, !tbaa !4
  store ptr null, ptr getelementptr inbounds nuw (i8, ptr @_Py_path_config, i64 40), align 8, !tbaa !15
  call void @PyMem_SetAllocator(i32 noundef 0, ptr noundef nonnull %2) #12
  %17 = load ptr, ptr getelementptr inbounds nuw (i8, ptr @_Py_path_config, i64 8), align 8, !tbaa !12
  %18 = icmp eq ptr %17, null
  %19 = load ptr, ptr getelementptr inbounds nuw (i8, ptr @_Py_path_config, i64 16), align 8
  %20 = icmp eq ptr %19, null
  %or.cond = select i1 %18, i1 true, i1 %20
  %21 = load ptr, ptr getelementptr inbounds nuw (i8, ptr @_Py_path_config, i64 24), align 8
  %22 = icmp eq ptr %21, null
  %or.cond3 = select i1 %or.cond, i1 true, i1 %22
  %23 = load ptr, ptr getelementptr inbounds nuw (i8, ptr @_Py_path_config, i64 32), align 8
  %24 = icmp eq ptr %23, null
  %or.cond5 = select i1 %or.cond3, i1 true, i1 %24
  br i1 %or.cond5, label %25, label %26

25:                                               ; preds = %5
  call fastcc void @path_out_of_memory(ptr noundef nonnull @__func__.Py_SetPath) #14
  unreachable

26:                                               ; preds = %5
  call void @llvm.lifetime.end.p0(i64 40, ptr nonnull %2) #12
  br label %27

27:                                               ; preds = %26, %4
  ret void
}